target datalayout = "e-m:e-p270:32:32-p271:32:32-p272:64:64-i64:64-i128:128-f80:128-n8:16:32:64-S128"
target triple = "x86_64-pc-linux-gnu"

%struct.SDL_Properties = type { ptr, ptr }
%struct.SDL_Property = type { i32, %union.anon, ptr, ptr, ptr }
%union.anon = type { ptr }

@SDL_properties = internal global ptr null, align 8
@.str.4 = private unnamed_addr constant [4 x i8] c"%ld\00", align 1
@.str.5 = private unnamed_addr constant [3 x i8] c"%f\00", align 1
@.str.6 = private unnamed_addr constant [5 x i8] c"true\00", align 1
@.str.7 = private unnamed_addr constant [6 x i8] c"false\00", align 1

; Function Attrs: nounwind uwtable
define hidden ptr @SDL_GetStringProperty_REAL(i32 noundef %0, ptr noundef %1, ptr noundef %2) #0 {
  %4 = alloca ptr, align 8
  %5 = alloca i32, align 4
  %6 = alloca ptr, align 8
  %7 = alloca ptr, align 8
  %8 = alloca ptr, align 8
  %9 = alloca ptr, align 8
  %10 = alloca i32, align 4
  %11 = alloca ptr, align 8
  store i32 %0, ptr %5, align 4
  store ptr %1, ptr %6, align 8
  store ptr %2, ptr %7, align 8
  call void @llvm.lifetime.start.p0(i64 8, ptr %8) #6
  store ptr null, ptr %8, align 8
  call void @llvm.lifetime.start.p0(i64 8, ptr %9) #6
  %12 = load ptr, ptr %7, align 8
  store ptr %12, ptr %9, align 8
  %13 = load i32, ptr %5, align 4
  %14 = icmp ne i32 %13, 0
  br i1 %14, label %17, label %15

15:                                               ; preds = %3
  %16 = load ptr, ptr %9, align 8
  store ptr %16, ptr %4, align 8
  store i32 1, ptr %10, align 4
  br label %119

17:                                               ; preds = %3
  %18 = load ptr, ptr %6, align 8
  %19 = icmp ne ptr %18, null
  br i1 %19, label %20, label %24

20:                                               ; preds = %17
  %21 = load ptr, ptr %6, align 8
  %22 = load i8, ptr %21, align 1
  %23 = icmp ne i8 %22, 0
  br i1 %23, label %26, label %24

24:                                               ; preds = %20, %17
  %25 = load ptr, ptr %9, align 8
  store ptr %25, ptr %4, align 8
  store i32 1, ptr %10, align 4
  br label %119

26:                                               ; preds = %20
  %27 = load ptr, ptr @SDL_properties, align 8
  %28 = load i32, ptr %5, align 4
  %29 = zext i32 %28 to i64
  %30 = inttoptr i64 %29 to ptr
  %31 = call zeroext i1 @SDL_FindInHashTable(ptr noundef %27, ptr noundef %30, ptr noundef %8)
  %32 = load ptr, ptr %8, align 8
  %33 = icmp ne ptr %32, null
  br i1 %33, label %36, label %34

34:                                               ; preds = %26
  %35 = load ptr, ptr %9, align 8
  store ptr %35, ptr %4, align 8
  store i32 1, ptr %10, align 4
  br label %119

36:                                               ; preds = %26
  %37 = load ptr, ptr %8, align 8
  %38 = getelementptr inbounds nuw %struct.SDL_Properties, ptr %37, i32 0, i32 1
  %39 = load ptr, ptr %38, align 8
  call void @SDL_LockMutex_REAL(ptr noundef %39)
  call void @llvm.lifetime.start.p0(i64 8, ptr %11) #6
  store ptr null, ptr %11, align 8
  %40 = load ptr, ptr %8, align 8
  %41 = getelementptr inbounds nuw %struct.SDL_Properties, ptr %40, i32 0, i32 0
  %42 = load ptr, ptr %41, align 8
  %43 = load ptr, ptr %6, align 8
  %44 = call zeroext i1 @SDL_FindInHashTable(ptr noundef %42, ptr noundef %43, ptr noundef %11)
  br i1 %44, label %45, label %114

45:                                               ; preds = %36
  %46 = load ptr, ptr %11, align 8
  %47 = getelementptr inbounds nuw %struct.SDL_Property, ptr %46, i32 0, i32 0
  %48 = load i32, ptr %47, align 8
  switch i32 %48, label %112 [
    i32 2, label %49
    i32 3, label %53
    i32 4, label %79
    i32 5, label %106
  ]

49:                                               ; preds = %45
  %50 = load ptr, ptr %11, align 8
  %51 = getelementptr inbounds nuw %struct.SDL_Property, ptr %50, i32 0, i32 1
  %52 = load ptr, ptr %51, align 8
  store ptr %52, ptr %9, align 8
  br label %113

53:                                               ; preds = %45
  %54 = load ptr, ptr %11, align 8
  %55 = getelementptr inbounds nuw %struct.SDL_Property, ptr %54, i32 0, i32 2
  %56 = load ptr, ptr %55, align 8
  %57 = icmp ne ptr %56, null
  br i1 %57, label %58, label %62

58:                                               ; preds = %53
  %59 = load ptr, ptr %11, align 8
  %60 = getelementptr inbounds nuw %struct.SDL_Property, ptr %59, i32 0, i32 2
  %61 = load ptr, ptr %60, align 8
  store ptr %61, ptr %9, align 8
  br label %78

62:                                               ; preds = %53
  %63 = load ptr, ptr %11, align 8
  %64 = getelementptr inbounds nuw %struct.SDL_Property, ptr %63, i32 0, i32 2
  %65 = load ptr, ptr %11, align 8
  %66 = getelementptr inbounds nuw %struct.SDL_Property, ptr %65, i32 0, i32 1
  %67 = load i64, ptr %66, align 8
  %68 = call i32 (ptr, ptr, ...) @SDL_asprintf_REAL(ptr noundef %64, ptr noundef @.str.4, i64 noundef %67)
  %69 = load ptr, ptr %11, align 8
  %70 = getelementptr inbounds nuw %struct.SDL_Property, ptr %69, i32 0, i32 2
  %71 = load ptr, ptr %70, align 8
  %72 = icmp ne ptr %71, null
  br i1 %72, label %73, label %77

73:                                               ; preds = %62
  %74 = load ptr, ptr %11, align 8
  %75 = getelementptr inbounds nuw %struct.SDL_Property, ptr %74, i32 0, i32 2
  %76 = load ptr, ptr %75, align 8
  store ptr %76, ptr %9, align 8
  br label %77

77:                                               ; preds = %73, %62
  br label %78

78:                                               ; preds = %77, %58
  br label %113

79:                                               ; preds = %45
  %80 = load ptr, ptr %11, align 8
  %81 = getelementptr inbounds nuw %struct.SDL_Property, ptr %80, i32 0, i32 2
  %82 = load ptr, ptr %81, align 8
  %83 = icmp ne ptr %82, null
  br i1 %83, label %84, label %88

84:                                               ; preds = %79
  %85 = load ptr, ptr %11, align 8
  %86 = getelementptr inbounds nuw %struct.SDL_Property, ptr %85, i32 0, i32 2
  %87 = load ptr, ptr %86, align 8
  store ptr %87, ptr %9, align 8
  br label %105

88:                                               ; preds = %79
  %89 = load ptr, ptr %11, align 8
  %90 = getelementptr inbounds nuw %struct.SDL_Property, ptr %89, i32 0, i32 2
  %91 = load ptr, ptr %11, align 8
  %92 = getelementptr inbounds nuw %struct.SDL_Property, ptr %91, i32 0, i32 1
  %93 = load float, ptr %92, align 8
  %94 = fpext float %93 to double
  %95 = call i32 (ptr, ptr, ...) @SDL_asprintf_REAL(ptr noundef %90, ptr noundef @.str.5, double noundef %94)
  %96 = load ptr, ptr %11, align 8
  %97 = getelementptr inbounds nuw %struct.SDL_Property, ptr %96, i32 0, i32 2
  %98 = load ptr, ptr %97, align 8
  %99 = icmp ne ptr %98, null
  br i1 %99, label %100, label %104

100:                                              ; preds = %88
  %101 = load ptr, ptr %11, align 8
  %102 = getelementptr inbounds nuw %struct.SDL_Property, ptr %101, i32 0, i32 2
  %103 = load ptr, ptr %102, align 8
  store ptr %103, ptr %9, align 8
  br label %104

104:                                              ; preds = %100, %88
  br label %105

105:                                              ; preds = %104, %84
  br label %113

106:                                              ; preds = %45
  %107 = load ptr, ptr %11, align 8
  %108 = getelementptr inbounds nuw %struct.SDL_Property, ptr %107, i32 0, i32 1
  %109 = load i8, ptr %108, align 8, !range !3, !noundef !4
  %110 = trunc i8 %109 to i1
  %111 = select i1 %110, ptr @.str.6, ptr @.str.7
  store ptr %111, ptr %9, align 8
  br label %113

112:                                              ; preds = %45
  br label %113

113:                                              ; preds = %112, %106, %105, %78, %49
  br label %114

114:                                              ; preds = %113, %36
  call void @llvm.lifetime.end.p0(i64 8, ptr %11) #6
  %115 = load ptr, ptr %8, align 8
  %116 = getelementptr inbounds nuw %struct.SDL_Properties, ptr %115, i32 0, i32 1
  %117 = load ptr, ptr %116, align 8
  call void @SDL_UnlockMutex_REAL(ptr noundef %117)
  %118 = load ptr, ptr %9, align 8
  store ptr %118, ptr %4, align 8
  store i32 1, ptr %10, align 4
  br label %119

119:                                              ; preds = %114, %34, %24, %15
  call void @llvm.lifetime.end.p0(i64 8, ptr %9) #6
  call void @llvm.lifetime.end.p0(i64 8, ptr %8) #6
  %120 = load ptr, ptr %4, align 8
  ret ptr %120
}