; Function Attrs: nounwind uwtable
define hidden ptr @SDL_GetStringProperty_REAL(i32 noundef %0, ptr noundef %1, ptr noundef readnone captures(ret: address, provenance) %2) local_unnamed_addr #0 {
  %4 = alloca ptr, align 8
  %5 = alloca ptr, align 8
  call void @llvm.lifetime.start.p0(i64 8, ptr nonnull %4) #6
  store ptr null, ptr %4, align 8
  %.not = icmp eq i32 %0, 0
  %.not18 = icmp eq ptr %1, null
  %or.cond = or i1 %.not, %.not18
  br i1 %or.cond, label %56, label %6

6:                                                ; preds = %3
  %7 = load i8, ptr %1, align 1
  %.not19 = icmp eq i8 %7, 0
  br i1 %.not19, label %56, label %8

8:                                                ; preds = %6
  %9 = load ptr, ptr @SDL_properties, align 8
  %10 = zext i32 %0 to i64
  %11 = inttoptr i64 %10 to ptr
  %12 = call zeroext i1 @SDL_FindInHashTable(ptr noundef %9, ptr noundef nonnull %11, ptr noundef nonnull %4) #6
  %13 = load ptr, ptr %4, align 8
  %.not20 = icmp eq ptr %13, null
  br i1 %.not20, label %56, label %14

14:                                               ; preds = %8
  %15 = getelementptr inbounds nuw i8, ptr %13, i64 8
  %16 = load ptr, ptr %15, align 8
  call void @SDL_LockMutex_REAL(ptr noundef %16) #6
  call void @llvm.lifetime.start.p0(i64 8, ptr nonnull %5) #6
  store ptr null, ptr %5, align 8
  %17 = load ptr, ptr %4, align 8
  %18 = load ptr, ptr %17, align 8
  %19 = call zeroext i1 @SDL_FindInHashTable(ptr noundef %18, ptr noundef nonnull %1, ptr noundef nonnull %5) #6
  br i1 %19, label %20, label %52

20:                                               ; preds = %14
  %21 = load ptr, ptr %5, align 8
  %22 = load i32, ptr %21, align 8
  switch i32 %22, label %52 [
    i32 2, label %23
    i32 3, label %26
    i32 4, label %36
    i32 5, label %47
  ]

23:                                               ; preds = %20
  %24 = getelementptr inbounds nuw i8, ptr %21, i64 8
  %25 = load ptr, ptr %24, align 8
  br label %52

26:                                               ; preds = %20
  %27 = getelementptr inbounds nuw i8, ptr %21, i64 16
  %28 = load ptr, ptr %27, align 8
  %.not23 = icmp eq ptr %28, null
  br i1 %.not23, label %29, label %52

29:                                               ; preds = %26
  %30 = getelementptr inbounds nuw i8, ptr %21, i64 8
  %31 = load i64, ptr %30, align 8
  %32 = call i32 (ptr, ptr, ...) @SDL_asprintf_REAL(ptr noundef nonnull %27, ptr noundef nonnull @.str.4, i64 noundef %31) #6
  %33 = load ptr, ptr %5, align 8
  %34 = getelementptr inbounds nuw i8, ptr %33, i64 16
  %35 = load ptr, ptr %34, align 8
  %.not24 = icmp eq ptr %35, null
  %spec.select = select i1 %.not24, ptr %2, ptr %35
  br label %52

36:                                               ; preds = %20
  %37 = getelementptr inbounds nuw i8, ptr %21, i64 16
  %38 = load ptr, ptr %37, align 8
  %.not21 = icmp eq ptr %38, null
  br i1 %.not21, label %39, label %52

39:                                               ; preds = %36
  %40 = getelementptr inbounds nuw i8, ptr %21, i64 8
  %41 = load float, ptr %40, align 8
  %42 = fpext float %41 to double
  %43 = call i32 (ptr, ptr, ...) @SDL_asprintf_REAL(ptr noundef nonnull %37, ptr noundef nonnull @.str.5, double noundef %42) #6
  %44 = load ptr, ptr %5, align 8
  %45 = getelementptr inbounds nuw i8, ptr %44, i64 16
  %46 = load ptr, ptr %45, align 8
  %.not22 = icmp eq ptr %46, null
  %spec.select25 = select i1 %.not22, ptr %2, ptr %46
  br label %52

47:                                               ; preds = %20
  %48 = getelementptr inbounds nuw i8, ptr %21, i64 8
  %49 = load i8, ptr %48, align 8, !range !5, !noundef !6
  %50 = trunc nuw i8 %49 to i1
  %51 = select i1 %50, ptr @.str.6, ptr @.str.7
  br label %52

52:                                               ; preds = %39, %29, %36, %26, %23, %47, %20, %14
  %.0 = phi ptr [ %2, %20 ], [ %51, %47 ], [ %25, %23 ], [ %2, %14 ], [ %28, %26 ], [ %spec.select, %29 ], [ %38, %36 ], [ %spec.select25, %39 ]
  call void @llvm.lifetime.end.p0(i64 8, ptr nonnull %5) #6
  %53 = load ptr, ptr %4, align 8
  %54 = getelementptr inbounds nuw i8, ptr %53, i64 8
  %55 = load ptr, ptr %54, align 8
  call void @SDL_UnlockMutex_REAL(ptr noundef %55) #6
  br label %56

56:                                               ; preds = %8, %6, %3, %52
  %.010 = phi ptr [ %.0, %52 ], [ %2, %3 ], [ %2, %6 ], [ %2, %8 ]
  call void @llvm.lifetime.end.p0(i64 8, ptr nonnull %4) #6
  ret ptr %.010
}